; Function Attrs: mustprogress uwtable
define dso_local noundef i32 @_ZN13cmCTestLaunch4MainEiPKPKcNS_2OpE(i32 noundef %0, ptr noundef %1, i32 noundef %2) local_unnamed_addr #5 align 2 personality ptr @__gxx_personality_v0 {
  %4 = alloca %class.cmCTestLaunch, align 8
  %5 = icmp eq i32 %0, 2
  br i1 %5, label %6, label %27

6:                                                ; preds = %3
  %7 = tail call noundef nonnull align 8 dereferenceable(8) ptr @_ZSt16__ostream_insertIcSt11char_traitsIcEERSt13basic_ostreamIT_T0_ES6_PKS3_l(ptr noundef nonnull align 8 dereferenceable(8) @_ZSt4cerr, ptr noundef nonnull @.str.29, i64 noundef 56)
  %8 = load ptr, ptr @_ZSt4cerr, align 8, !tbaa !63
  %9 = getelementptr i8, ptr %8, i64 -24
  %10 = load i64, ptr %9, align 8
  %11 = getelementptr inbounds i8, ptr @_ZSt4cerr, i64 %10
  %12 = getelementptr inbounds nuw i8, ptr %11, i64 240
  %13 = load ptr, ptr %12, align 8, !tbaa !189
  %.not.i.i.i = icmp eq ptr %13, null
  br i1 %.not.i.i.i, label %14, label %_ZSt13__check_facetISt5ctypeIcEERKT_PS3_.exit.i.i

14:                                               ; preds = %6
  tail call void @_ZSt16__throw_bad_castv() #26
  unreachable

_ZSt13__check_facetISt5ctypeIcEERKT_PS3_.exit.i.i: ; preds = %6
  %15 = getelementptr inbounds nuw i8, ptr %13, i64 56
  %16 = load i8, ptr %15, align 8, !tbaa !195
  %.not.i1.i.i = icmp eq i8 %16, 0
  br i1 %.not.i1.i.i, label %20, label %17

17:                                               ; preds = %_ZSt13__check_facetISt5ctypeIcEERKT_PS3_.exit.i.i
  %18 = getelementptr inbounds nuw i8, ptr %13, i64 67
  %19 = load i8, ptr %18, align 1, !tbaa !49
  br label %_ZSt4endlIcSt11char_traitsIcEERSt13basic_ostreamIT_T0_ES6_.exit

20:                                               ; preds = %_ZSt13__check_facetISt5ctypeIcEERKT_PS3_.exit.i.i
  tail call void @_ZNKSt5ctypeIcE13_M_widen_initEv(ptr noundef nonnull align 8 dereferenceable(570) %13)
  %21 = load ptr, ptr %13, align 8, !tbaa !63
  %22 = getelementptr inbounds nuw i8, ptr %21, i64 48
  %23 = load ptr, ptr %22, align 8
  %24 = tail call noundef signext i8 %23(ptr noundef nonnull align 8 dereferenceable(570) %13, i8 noundef signext 10)
  br label %_ZSt4endlIcSt11char_traitsIcEERSt13basic_ostreamIT_T0_ES6_.exit

_ZSt4endlIcSt11char_traitsIcEERSt13basic_ostreamIT_T0_ES6_.exit: ; preds = %17, %20
  %.0.i.i.i = phi i8 [ %19, %17 ], [ %24, %20 ]
  %25 = tail call noundef nonnull align 8 dereferenceable(8) ptr @_ZNSo3putEc(ptr noundef nonnull align 8 dereferenceable(8) @_ZSt4cerr, i8 noundef signext %.0.i.i.i)
  %26 = tail call noundef nonnull align 8 dereferenceable(8) ptr @_ZNSo5flushEv(ptr noundef nonnull align 8 dereferenceable(8) %25)
  br label %32

27:                                               ; preds = %3
  call void @llvm.lifetime.start.p0(i64 736, ptr nonnull %4) #23
  call void @_ZN13cmCTestLaunchC2EiPKPKcNS_2OpE(ptr noundef nonnull align 8 dereferenceable(732) %4, i32 noundef %0, ptr noundef %1, i32 noundef %2)
  %28 = invoke noundef i32 @_ZN13cmCTestLaunch3RunEv(ptr noundef nonnull align 8 dereferenceable(732) %4)
          to label %29 unwind label %30

29:                                               ; preds = %27
  call void @_ZN13cmCTestLaunchD2Ev(ptr noundef nonnull align 8 dereferenceable(732) %4) #23
  call void @llvm.lifetime.end.p0(i64 736, ptr nonnull %4) #23
  br label %32

30:                                               ; preds = %27
  %31 = landingpad { ptr, i32 }
          cleanup
  call void @_ZN13cmCTestLaunchD2Ev(ptr noundef nonnull align 8 dereferenceable(732) %4) #23
  call void @llvm.lifetime.end.p0(i64 736, ptr nonnull %4) #23
  resume { ptr, i32 } %31

32:                                               ; preds = %29, %_ZSt4endlIcSt11char_traitsIcEERSt13basic_ostreamIT_T0_ES6_.exit
  %.0 = phi i32 [ 1, %_ZSt4endlIcSt11char_traitsIcEERSt13basic_ostreamIT_T0_ES6_.exit ], [ %28, %29 ]
  ret i32 %.0
}